target datalayout = "e-m:e-p270:32:32-p271:32:32-p272:64:64-i64:64-i128:128-f80:128-n8:16:32:64-S128"
target triple = "x86_64-unknown-linux-gnu"

%"class.std::set.0" = type { %"class.std::_Rb_tree.1" }
%"class.std::_Rb_tree.1" = type { %"struct.std::_Rb_tree<QuantLib::Observer *, QuantLib::Observer *, std::_Identity<QuantLib::Observer *>, std::less<QuantLib::Observer *>>::_Rb_tree_impl" }
%"struct.std::_Rb_tree<QuantLib::Observer *, QuantLib::Observer *, std::_Identity<QuantLib::Observer *>, std::less<QuantLib::Observer *>>::_Rb_tree_impl" = type { [8 x i8], %"struct.std::_Rb_tree_header" }
%"struct.std::_Rb_tree_header" = type { %"struct.std::_Rb_tree_node_base", i64 }
%"struct.std::_Rb_tree_node_base" = type { i32, ptr, ptr, ptr }
%"class.std::set" = type { %"class.std::_Rb_tree" }
%"class.std::_Rb_tree" = type { %"struct.std::_Rb_tree<boost::shared_ptr<QuantLib::Observable>, boost::shared_ptr<QuantLib::Observable>, std::_Identity<boost::shared_ptr<QuantLib::Observable>>, std::less<boost::shared_ptr<QuantLib::Observable>>>::_Rb_tree_impl" }
%"struct.std::_Rb_tree<boost::shared_ptr<QuantLib::Observable>, boost::shared_ptr<QuantLib::Observable>, std::_Identity<boost::shared_ptr<QuantLib::Observable>>, std::less<boost::shared_ptr<QuantLib::Observable>>>::_Rb_tree_impl" = type { [8 x i8], %"struct.std::_Rb_tree_header" }
%"class.boost::detail::shared_count" = type { ptr }
%"class.QuantLib::Observable" = type { ptr, %"class.std::set.0" }
%"class.QuantLib::DayCounter" = type { %"class.boost::shared_ptr.21" }
%"class.boost::shared_ptr.21" = type { ptr, %"class.boost::detail::shared_count" }
%"class.QuantLib::NoArbSabrSmileSection" = type { %"class.QuantLib::SmileSection.base", %"class.boost::shared_ptr.22", double, %"class.std::vector", double, %"class.QuantLib::Observable", %"class.QuantLib::Observer" }
%"class.QuantLib::SmileSection.base" = type { ptr, i8, %"class.QuantLib::Date", %"class.QuantLib::Date", %"class.QuantLib::DayCounter", double, i32, double }
%"class.QuantLib::Date" = type { i64 }
%"class.boost::shared_ptr.22" = type { ptr, %"class.boost::detail::shared_count" }
%"class.std::vector" = type { %"struct.std::_Vector_base" }
%"struct.std::_Vector_base" = type { %"struct.std::_Vector_base<double, std::allocator<double>>::_Vector_impl" }
%"struct.std::_Vector_base<double, std::allocator<double>>::_Vector_impl" = type { %"struct.std::_Vector_base<double, std::allocator<double>>::_Vector_impl_data" }
%"struct.std::_Vector_base<double, std::allocator<double>>::_Vector_impl_data" = type { ptr, ptr, ptr }
%"class.QuantLib::Observer" = type { ptr, %"class.std::set" }
%"class.QuantLib::Null" = type { i8 }

; Function Attrs: mustprogress nounwind uwtable
define linkonce_odr noundef float @_ZNSt14numeric_limitsIfE3maxEv() #1 comdat align 2 {
entry:
  ret float 0x47EFFFFFE0000000
}

; Function Attrs: mustprogress nounwind uwtable
define linkonce_odr noundef float @_ZN8QuantLib6detail17FloatingPointNullILb1EE9nullValueEv() #1 comdat align 2 {
entry:
  %call = call noundef float @_ZNSt14numeric_limitsIfE3maxEv() #13
  ret float %call
}

; Function Attrs: mustprogress nounwind uwtable
define linkonce_odr noundef nonnull align 8 dereferenceable(8) ptr @_ZNKSt6vectorIdSaIdEEixEm(ptr noundef nonnull align 8 dereferenceable(24) %this, i64 noundef %__n) #1 comdat align 2 {
entry:
  %this.addr = alloca ptr, align 8
  %__n.addr = alloca i64, align 8
  store ptr %this, ptr %this.addr, align 8, !tbaa !3
  store i64 %__n, ptr %__n.addr, align 8, !tbaa !35
  %this1 = load ptr, ptr %this.addr, align 8
  %_M_impl = getelementptr inbounds nuw %"struct.std::_Vector_base", ptr %this1, i32 0, i32 0
  %_M_start = getelementptr inbounds nuw %"struct.std::_Vector_base<double, std::allocator<double>>::_Vector_impl_data", ptr %_M_impl, i32 0, i32 0
  %0 = load ptr, ptr %_M_start, align 8, !tbaa !33
  %1 = load i64, ptr %__n.addr, align 8, !tbaa !35
  %add.ptr = getelementptr inbounds nuw double, ptr %0, i64 %1
  ret ptr %add.ptr
}

; Function Attrs: mustprogress uwtable
define linkonce_odr noundef double @_ZNK8QuantLib4NullIdEcvdEv(ptr noundef nonnull align 1 dereferenceable(1) %this) #2 comdat align 2 {
entry:
  %this.addr = alloca ptr, align 8
  store ptr %this, ptr %this.addr, align 8, !tbaa !3
  %call = call noundef float @_ZN8QuantLib6detail17FloatingPointNullILb1EE9nullValueEv()
  %conv = fpext float %call to double
  ret double %conv
}

; Function Attrs: mustprogress uwtable
define noundef double @_ZNK8QuantLib21NoArbSabrSmileSection14volatilityImplEd(ptr noundef nonnull align 8 dereferenceable(128) %this, double noundef %strike) unnamed_addr #2 align 2 personality ptr @__gxx_personality_v0 {
entry:
  %this.addr = alloca ptr, align 8
  %strike.addr = alloca double, align 8
  %impliedVol = alloca double, align 8
  %type = alloca i32, align 4
  %exn.slot = alloca ptr, align 8
  %ehselector.slot = alloca i32, align 4
  %ref.tmp = alloca %"class.QuantLib::Null", align 1
  store ptr %this, ptr %this.addr, align 8, !tbaa !3
  store double %strike, ptr %strike.addr, align 8, !tbaa !14
  %this1 = load ptr, ptr %this.addr, align 8
  call void @llvm.lifetime.start.p0(i64 8, ptr %impliedVol) #13
  store double 0.000000e+00, ptr %impliedVol, align 8, !tbaa !14
  call void @llvm.lifetime.start.p0(i64 4, ptr %type) #13
  %0 = load double, ptr %strike.addr, align 8, !tbaa !14
  %forward_ = getelementptr inbounds nuw %"class.QuantLib::NoArbSabrSmileSection", ptr %this1, i32 0, i32 2
  %1 = load double, ptr %forward_, align 8, !tbaa !18
  %cmp = fcmp oge double %0, %1
  br i1 %cmp, label %if.then, label %if.else

if.then:                                          ; preds = %entry
  store i32 1, ptr %type, align 4, !tbaa !36
  br label %if.end

if.else:                                          ; preds = %entry
  store i32 -1, ptr %type, align 4, !tbaa !36
  br label %if.end

if.end:                                           ; preds = %if.else, %if.then
  %2 = load i32, ptr %type, align 4, !tbaa !36
  %3 = load double, ptr %strike.addr, align 8, !tbaa !14
  %forward_2 = getelementptr inbounds nuw %"class.QuantLib::NoArbSabrSmileSection", ptr %this1, i32 0, i32 2
  %4 = load double, ptr %forward_2, align 8, !tbaa !18
  %5 = load double, ptr %strike.addr, align 8, !tbaa !14
  %6 = load i32, ptr %type, align 4, !tbaa !36
  %vtable = load ptr, ptr %this1, align 8, !tbaa !12
  %vfn = getelementptr inbounds ptr, ptr %vtable, i64 12
  %7 = load ptr, ptr %vfn, align 8
  %call = invoke noundef double %7(ptr noundef nonnull align 8 dereferenceable(128) %this1, double noundef %5, i32 noundef %6, double noundef 1.000000e+00)
          to label %invoke.cont unwind label %lpad

invoke.cont:                                      ; preds = %if.end
  call void @llvm.lifetime.start.p0(i64 1, ptr %ref.tmp) #13
  %call5 = invoke noundef double @_ZNK8QuantLib4NullIdEcvdEv(ptr noundef nonnull align 1 dereferenceable(1) %ref.tmp)
          to label %invoke.cont4 unwind label %lpad3

invoke.cont4:                                     ; preds = %invoke.cont
  %call7 = invoke noundef double @_ZN8QuantLib25blackFormulaImpliedStdDevENS_6Option4TypeEdddddddj(i32 noundef %2, double noundef %3, double noundef %4, double noundef %call, double noundef 1.000000e+00, double noundef 0.000000e+00, double noundef %call5, double noundef 0x3EB0C6F7A0B5ED8D, i32 noundef 100)
          to label %invoke.cont6 unwind label %lpad3

invoke.cont6:                                     ; preds = %invoke.cont4
  %vtable8 = load ptr, ptr %this1, align 8, !tbaa !12
  %vfn9 = getelementptr inbounds ptr, ptr %vtable8, i64 10
  %8 = load ptr, ptr %vfn9, align 8
  %call11 = invoke noundef double %8(ptr noundef nonnull align 8 dereferenceable(72) %this1)
          to label %invoke.cont10 unwind label %lpad3

invoke.cont10:                                    ; preds = %invoke.cont6
  %call12 = call double @sqrt(double noundef %call11) #13, !tbaa !42
  %div = fdiv double %call7, %call12
  store double %div, ptr %impliedVol, align 8, !tbaa !14
  call void @llvm.lifetime.end.p0(i64 1, ptr %ref.tmp) #13
  call void @llvm.lifetime.end.p0(i64 4, ptr %type) #13
  br label %try.cont

lpad:                                             ; preds = %if.end
  %9 = landingpad { ptr, i32 }
          catch ptr null
  %10 = extractvalue { ptr, i32 } %9, 0
  store ptr %10, ptr %exn.slot, align 8
  %11 = extractvalue { ptr, i32 } %9, 1
  store i32 %11, ptr %ehselector.slot, align 4
  br label %ehcleanup

lpad3:                                            ; preds = %invoke.cont6, %invoke.cont4, %invoke.cont
  %12 = landingpad { ptr, i32 }
          catch ptr null
  %13 = extractvalue { ptr, i32 } %12, 0
  store ptr %13, ptr %exn.slot, align 8
  %14 = extractvalue { ptr, i32 } %12, 1
  store i32 %14, ptr %ehselector.slot, align 4
  call void @llvm.lifetime.end.p0(i64 1, ptr %ref.tmp) #13
  br label %ehcleanup

ehcleanup:                                        ; preds = %lpad3, %lpad
  call void @llvm.lifetime.end.p0(i64 4, ptr %type) #13
  br label %catch

catch:                                            ; preds = %ehcleanup
  %exn = load ptr, ptr %exn.slot, align 8
  %15 = call ptr @__cxa_begin_catch(ptr %exn) #13
  call void @__cxa_end_catch()
  br label %try.cont

try.cont:                                         ; preds = %catch, %invoke.cont10
  %16 = load double, ptr %impliedVol, align 8, !tbaa !14
  %cmp13 = fcmp oeq double %16, 0.000000e+00
  br i1 %cmp13, label %if.then14, label %if.end30

if.then14:                                        ; preds = %try.cont
  %17 = load double, ptr %strike.addr, align 8, !tbaa !14
  %forward_15 = getelementptr inbounds nuw %"class.QuantLib::NoArbSabrSmileSection", ptr %this1, i32 0, i32 2
  %18 = load double, ptr %forward_15, align 8, !tbaa !18
  %vtable16 = load ptr, ptr %this1, align 8, !tbaa !12
  %vfn17 = getelementptr inbounds ptr, ptr %vtable16, i64 10
  %19 = load ptr, ptr %vfn17, align 8
  %call18 = call noundef double %19(ptr noundef nonnull align 8 dereferenceable(72) %this1)
  %params_ = getelementptr inbounds nuw %"class.QuantLib::NoArbSabrSmileSection", ptr %this1, i32 0, i32 3
  %call19 = call noundef nonnull align 8 dereferenceable(8) ptr @_ZNKSt6vectorIdSaIdEEixEm(ptr noundef nonnull align 8 dereferenceable(24) %params_, i64 noundef 0) #13
  %20 = load double, ptr %call19, align 8, !tbaa !14
  %params_20 = getelementptr inbounds nuw %"class.QuantLib::NoArbSabrSmileSection", ptr %this1, i32 0, i32 3
  %call21 = call noundef nonnull align 8 dereferenceable(8) ptr @_ZNKSt6vectorIdSaIdEEixEm(ptr noundef nonnull align 8 dereferenceable(24) %params_20, i64 noundef 1) #13
  %21 = load double, ptr %call21, align 8, !tbaa !14
  %params_22 = getelementptr inbounds nuw %"class.QuantLib::NoArbSabrSmileSection", ptr %this1, i32 0, i32 3
  %call23 = call noundef nonnull align 8 dereferenceable(8) ptr @_ZNKSt6vectorIdSaIdEEixEm(ptr noundef nonnull align 8 dereferenceable(24) %params_22, i64 noundef 2) #13
  %22 = load double, ptr %call23, align 8, !tbaa !14
  %params_24 = getelementptr inbounds nuw %"class.QuantLib::NoArbSabrSmileSection", ptr %this1, i32 0, i32 3
  %call25 = call noundef nonnull align 8 dereferenceable(8) ptr @_ZNKSt6vectorIdSaIdEEixEm(ptr noundef nonnull align 8 dereferenceable(24) %params_24, i64 noundef 3) #13
  %23 = load double, ptr %call25, align 8, !tbaa !14
  %vtable26 = load ptr, ptr %this1, align 8, !tbaa !12
  %vfn27 = getelementptr inbounds ptr, ptr %vtable26, i64 7
  %24 = load ptr, ptr %vfn27, align 8
  %call28 = call noundef i32 %24(ptr noundef nonnull align 8 dereferenceable(72) %this1)
  %call29 = call noundef double @_ZN8QuantLib20unsafeSabrVolatilityEdddddddNS_14VolatilityTypeE(double noundef %17, double noundef %18, double noundef %call18, double noundef %20, double noundef %21, double noundef %22, double noundef %23, i32 noundef %call28)
  store double %call29, ptr %impliedVol, align 8, !tbaa !14
  br label %if.end30

if.end30:                                         ; preds = %if.then14, %try.cont
  %25 = load double, ptr %impliedVol, align 8, !tbaa !14
  call void @llvm.lifetime.end.p0(i64 8, ptr %impliedVol) #13
  ret double %25
}