; Function Attrs: mustprogress uwtable
define noundef double @_ZNK8QuantLib21NoArbSabrSmileSection14volatilityImplEd(ptr noundef nonnull align 8 dereferenceable(128) %this, double noundef %strike) unnamed_addr #6 align 2 personality ptr @__gxx_personality_v0 {
entry:
  %forward_ = getelementptr inbounds nuw i8, ptr %this, i64 88
  %0 = load double, ptr %forward_, align 8, !tbaa !39
  %cmp = fcmp ult double %strike, %0
  %. = select i1 %cmp, i32 -1, i32 1
  %vtable = load ptr, ptr %this, align 8, !tbaa !35
  %vfn = getelementptr inbounds i8, ptr %vtable, i64 96
  %1 = load ptr, ptr %vfn, align 8
  %call = invoke noundef double %1(ptr noundef nonnull align 8 dereferenceable(128) %this, double noundef %strike, i32 noundef %., double noundef 1.000000e+00)
          to label %invoke.cont4 unwind label %lpad

invoke.cont4:                                     ; preds = %entry
  %call7 = invoke noundef double @_ZN8QuantLib25blackFormulaImpliedStdDevENS_6Option4TypeEdddddddj(i32 noundef %., double noundef %strike, double noundef %0, double noundef %call, double noundef 1.000000e+00, double noundef 0.000000e+00, double noundef 0x47EFFFFFE0000000, double noundef 0x3EB0C6F7A0B5ED8D, i32 noundef 100)
          to label %invoke.cont6 unwind label %lpad3

invoke.cont6:                                     ; preds = %invoke.cont4
  %vtable8 = load ptr, ptr %this, align 8, !tbaa !35
  %vfn9 = getelementptr inbounds i8, ptr %vtable8, i64 80
  %2 = load ptr, ptr %vfn9, align 8
  %call11 = invoke noundef double %2(ptr noundef nonnull align 8 dereferenceable(72) %this)
          to label %try.cont unwind label %lpad3

lpad:                                             ; preds = %entry
  %3 = landingpad { ptr, i32 }
          catch ptr null
  br label %try.cont.thread

lpad3:                                            ; preds = %invoke.cont6, %invoke.cont4
  %4 = landingpad { ptr, i32 }
          catch ptr null
  br label %try.cont.thread

try.cont.thread:                                  ; preds = %lpad, %lpad3
  %.pn = phi { ptr, i32 } [ %4, %lpad3 ], [ %3, %lpad ]
  %exn.slot.0 = extractvalue { ptr, i32 } %.pn, 0
  %5 = tail call ptr @__cxa_begin_catch(ptr %exn.slot.0) #24
  tail call void @__cxa_end_catch()
  br label %if.then14

try.cont:                                         ; preds = %invoke.cont6
  %call12 = tail call double @sqrt(double noundef %call11) #24, !tbaa !72
  %div = fdiv double %call7, %call12
  %cmp13 = fcmp oeq double %div, 0.000000e+00
  br i1 %cmp13, label %if.then14, label %if.end30

if.then14:                                        ; preds = %try.cont.thread, %try.cont
  %6 = load double, ptr %forward_, align 8, !tbaa !39
  %vtable16 = load ptr, ptr %this, align 8, !tbaa !35
  %vfn17 = getelementptr inbounds i8, ptr %vtable16, i64 80
  %7 = load ptr, ptr %vfn17, align 8
  %call18 = tail call noundef double %7(ptr noundef nonnull align 8 dereferenceable(72) %this)
  %params_ = getelementptr inbounds nuw i8, ptr %this, i64 96
  %8 = load ptr, ptr %params_, align 8, !tbaa !52
  %9 = load double, ptr %8, align 8, !tbaa !56
  %add.ptr.i = getelementptr inbounds nuw i8, ptr %8, i64 8
  %10 = load double, ptr %add.ptr.i, align 8, !tbaa !56
  %add.ptr.i6 = getelementptr inbounds nuw i8, ptr %8, i64 16
  %11 = load double, ptr %add.ptr.i6, align 8, !tbaa !56
  %add.ptr.i7 = getelementptr inbounds nuw i8, ptr %8, i64 24
  %12 = load double, ptr %add.ptr.i7, align 8, !tbaa !56
  %vtable26 = load ptr, ptr %this, align 8, !tbaa !35
  %vfn27 = getelementptr inbounds i8, ptr %vtable26, i64 56
  %13 = load ptr, ptr %vfn27, align 8
  %call28 = tail call noundef i32 %13(ptr noundef nonnull align 8 dereferenceable(72) %this)
  %call29 = tail call noundef double @_ZN8QuantLib20unsafeSabrVolatilityEdddddddNS_14VolatilityTypeE(double noundef %strike, double noundef %6, double noundef %call18, double noundef %9, double noundef %10, double noundef %11, double noundef %12, i32 noundef %call28)
  br label %if.end30

if.end30:                                         ; preds = %if.then14, %try.cont
  %impliedVol.1 = phi double [ %call29, %if.then14 ], [ %div, %try.cont ]
  ret double %impliedVol.1
}